; Function Attrs: nounwind uwtable
define dso_local range(i32 0, 2) i32 @cmd_check_ref_format(i32 noundef %0, ptr noundef %1, ptr noundef %2, ptr noundef readnone captures(none) %3) local_unnamed_addr #0 {
  %5 = alloca %struct.strbuf, align 8
  %6 = alloca i32, align 4
  %.not = icmp eq ptr %2, null
  br i1 %.not, label %8, label %7

7:                                                ; preds = %4
  tail call void (ptr, i32, ptr, ...) @BUG_fl(ptr noundef nonnull @.str, i32 noundef 65, ptr noundef nonnull @.str.1, ptr noundef nonnull %2) #8
  unreachable

8:                                                ; preds = %4
  tail call void @show_usage_if_asked(i32 noundef %0, ptr noundef %1, ptr noundef nonnull @builtin_check_ref_format_usage) #9
  %9 = icmp eq i32 %0, 3
  br i1 %9, label %10, label %29

10:                                               ; preds = %8
  %11 = getelementptr inbounds nuw i8, ptr %1, i64 8
  %12 = load ptr, ptr %11, align 8, !tbaa !4
  %13 = tail call i32 @strcmp(ptr noundef nonnull dereferenceable(1) %12, ptr noundef nonnull dereferenceable(9) @.str.2) #10
  %.not45 = icmp eq i32 %13, 0
  br i1 %.not45, label %14, label %.lr.ph.preheader

14:                                               ; preds = %10
  %15 = getelementptr inbounds nuw i8, ptr %1, i64 16
  %16 = load ptr, ptr %15, align 8, !tbaa !4
  call void @llvm.lifetime.start.p0(i64 24, ptr nonnull %5) #9
  call void @llvm.memcpy.p0.p0.i64(ptr noundef nonnull align 8 dereferenceable(24) %5, ptr noundef nonnull align 8 dereferenceable(24) @__const.check_ref_format_branch.sb, i64 24, i1 false)
  call void @llvm.lifetime.start.p0(i64 4, ptr nonnull %6) #9
  %17 = call ptr @setup_git_directory_gently(ptr noundef nonnull %6) #9
  %18 = call i32 @check_branch_ref(ptr noundef nonnull %5, ptr noundef %16) #9
  %.not.i = icmp eq i32 %18, 0
  br i1 %.not.i, label %19, label %28

19:                                               ; preds = %14
  %20 = getelementptr inbounds nuw i8, ptr %5, i64 16
  %21 = load ptr, ptr %20, align 8, !tbaa !9
  %scevgep.i.i = getelementptr i8, ptr %21, i64 11
  br label %22

22:                                               ; preds = %24, %19
  %.07.i.i = phi ptr [ %21, %19 ], [ %25, %24 ]
  %.06.idx.i.i = phi i64 [ 0, %19 ], [ %.06.add.i.i, %24 ]
  %.06.ptr.i.i = getelementptr inbounds nuw i8, ptr @.str.9, i64 %.06.idx.i.i
  %23 = load i8, ptr %.06.ptr.i.i, align 1, !tbaa !12
  %exitcond.i.i = icmp eq i64 %.06.idx.i.i, 11
  br i1 %exitcond.i.i, label %skip_prefix.exit.i, label %24

24:                                               ; preds = %22
  %25 = getelementptr inbounds nuw i8, ptr %.07.i.i, i64 1
  %26 = load i8, ptr %.07.i.i, align 1, !tbaa !12
  %.06.add.i.i = add nuw nsw i64 %.06.idx.i.i, 1
  %27 = icmp eq i8 %26, %23
  br i1 %27, label %22, label %skip_prefix.exit.i, !llvm.loop !13

skip_prefix.exit.i:                               ; preds = %24, %22
  %.0.i = phi ptr [ undef, %24 ], [ %scevgep.i.i, %22 ]
  %.not.i.i = icmp eq i8 %23, 0
  br i1 %.not.i.i, label %check_ref_format_branch.exit, label %28

28:                                               ; preds = %skip_prefix.exit.i, %14
  call void (ptr, ...) @die(ptr noundef nonnull @.str.10, ptr noundef %16) #8
  unreachable

check_ref_format_branch.exit:                     ; preds = %skip_prefix.exit.i
  %puts.i = call i32 @puts(ptr nonnull dereferenceable(1) %.0.i)
  call void @strbuf_release(ptr noundef nonnull %5) #9
  call void @llvm.lifetime.end.p0(i64 4, ptr nonnull %6) #9
  call void @llvm.lifetime.end.p0(i64 24, ptr nonnull %5) #9
  br label %76

29:                                               ; preds = %8
  %30 = icmp sgt i32 %0, 1
  br i1 %30, label %.lr.ph.preheader, label %.critedge.thread85

.lr.ph.preheader:                                 ; preds = %10, %29
  %wide.trip.count = zext nneg i32 %0 to i64
  br label %.lr.ph

.lr.ph:                                           ; preds = %.lr.ph.preheader, %52
  %indvars.iv = phi i64 [ 1, %.lr.ph.preheader ], [ %indvars.iv.next, %52 ]
  %.03962 = phi i32 [ 0, %.lr.ph.preheader ], [ %.1, %52 ]
  %.04061 = phi i32 [ 0, %.lr.ph.preheader ], [ %.141, %52 ]
  %31 = getelementptr inbounds nuw ptr, ptr %1, i64 %indvars.iv
  %32 = load ptr, ptr %31, align 8, !tbaa !4
  %33 = load i8, ptr %32, align 1, !tbaa !12
  %34 = icmp eq i8 %33, 45
  br i1 %34, label %35, label %.critedge

35:                                               ; preds = %.lr.ph
  %36 = tail call i32 @strcmp(ptr noundef nonnull dereferenceable(1) %32, ptr noundef nonnull dereferenceable(12) @.str.3) #10
  %.not48 = icmp eq i32 %36, 0
  br i1 %.not48, label %52, label %37

37:                                               ; preds = %35
  %38 = tail call i32 @strcmp(ptr noundef nonnull dereferenceable(1) %32, ptr noundef nonnull dereferenceable(8) @.str.4) #10
  %.not49 = icmp eq i32 %38, 0
  br i1 %.not49, label %52, label %39

39:                                               ; preds = %37
  %40 = tail call i32 @strcmp(ptr noundef nonnull dereferenceable(1) %32, ptr noundef nonnull dereferenceable(17) @.str.5) #10
  %.not50 = icmp eq i32 %40, 0
  br i1 %.not50, label %41, label %43

41:                                               ; preds = %39
  %42 = or i32 %.03962, 1
  br label %52

43:                                               ; preds = %39
  %44 = tail call i32 @strcmp(ptr noundef nonnull dereferenceable(1) %32, ptr noundef nonnull dereferenceable(20) @.str.6) #10
  %.not51 = icmp eq i32 %44, 0
  br i1 %.not51, label %45, label %47

45:                                               ; preds = %43
  %46 = and i32 %.03962, -2
  br label %52

47:                                               ; preds = %43
  %48 = tail call i32 @strcmp(ptr noundef nonnull dereferenceable(1) %32, ptr noundef nonnull dereferenceable(18) @.str.7) #10
  %.not52 = icmp eq i32 %48, 0
  br i1 %.not52, label %49, label %51

49:                                               ; preds = %47
  %50 = or i32 %.03962, 2
  br label %52

51:                                               ; preds = %47
  tail call void @usage(ptr noundef nonnull @builtin_check_ref_format_usage) #8
  unreachable

52:                                               ; preds = %35, %37, %45, %49, %41
  %.141 = phi i32 [ %.04061, %49 ], [ %.04061, %45 ], [ %.04061, %41 ], [ 1, %37 ], [ 1, %35 ]
  %.1 = phi i32 [ %50, %49 ], [ %46, %45 ], [ %42, %41 ], [ %.03962, %37 ], [ %.03962, %35 ]
  %indvars.iv.next = add nuw nsw i64 %indvars.iv, 1
  %exitcond.not = icmp eq i64 %indvars.iv.next, %wide.trip.count
  br i1 %exitcond.not, label %.critedge.thread85, label %.lr.ph, !llvm.loop !15

.critedge:                                        ; preds = %.lr.ph
  %53 = trunc nuw nsw i64 %indvars.iv to i32
  %54 = add nsw i32 %0, -1
  %55 = icmp eq i32 %54, %53
  br i1 %55, label %56, label %.critedge.thread85

.critedge.thread85:                               ; preds = %52, %29, %.critedge
  tail call void @usage(ptr noundef nonnull @builtin_check_ref_format_usage) #8
  unreachable

56:                                               ; preds = %.critedge
  %57 = icmp eq i32 %.04061, 0
  %58 = and i64 %indvars.iv, 4294967295
  %59 = getelementptr inbounds nuw ptr, ptr %1, i64 %58
  %60 = load ptr, ptr %59, align 8, !tbaa !4
  br i1 %57, label %72, label %61

61:                                               ; preds = %56
  %62 = tail call i64 @strlen(ptr noundef nonnull readonly dereferenceable(1) %60) #10
  %63 = tail call ptr @xmallocz(i64 noundef %62) #9
  br label %.outer.i

.outer.i:                                         ; preds = %70, %61
  %.011.ph.i = phi ptr [ %68, %70 ], [ %60, %61 ]
  %.010.ph.i = phi i8 [ %66, %70 ], [ 47, %61 ]
  %.0.ph.i = phi ptr [ %71, %70 ], [ %63, %61 ]
  %64 = icmp eq i8 %.010.ph.i, 47
  br label %65

65:                                               ; preds = %67, %.outer.i
  %.011.i = phi ptr [ %68, %67 ], [ %.011.ph.i, %.outer.i ]
  %.010.i = phi i1 [ true, %67 ], [ %64, %.outer.i ]
  %66 = load i8, ptr %.011.i, align 1, !tbaa !12
  %.not.i53 = icmp eq i8 %66, 0
  br i1 %.not.i53, label %collapse_slashes.exit, label %67

67:                                               ; preds = %65
  %68 = getelementptr inbounds nuw i8, ptr %.011.i, i64 1
  %69 = icmp eq i8 %66, 47
  %or.cond.i = and i1 %.010.i, %69
  br i1 %or.cond.i, label %65, label %70, !llvm.loop !16

70:                                               ; preds = %67
  %71 = getelementptr inbounds nuw i8, ptr %.0.ph.i, i64 1
  store i8 %66, ptr %.0.ph.i, align 1, !tbaa !12
  br label %.outer.i, !llvm.loop !16

collapse_slashes.exit:                            ; preds = %65
  store i8 0, ptr %.0.ph.i, align 1, !tbaa !12
  br label %72

72:                                               ; preds = %collapse_slashes.exit, %56
  %.038 = phi ptr [ %63, %collapse_slashes.exit ], [ %60, %56 ]
  %.037 = phi ptr [ %63, %collapse_slashes.exit ], [ null, %56 ]
  %73 = tail call i32 @check_refname_format(ptr noundef %.038, i32 noundef %.03962) #9
  %.not47 = icmp ne i32 %73, 0
  %brmerge = or i1 %57, %.not47
  %.mux = zext i1 %.not47 to i32
  br i1 %brmerge, label %75, label %74

74:                                               ; preds = %72
  %puts = tail call i32 @puts(ptr nonnull dereferenceable(1) %.038)
  br label %75

75:                                               ; preds = %72, %74
  %.0 = phi i32 [ %.mux, %72 ], [ 0, %74 ]
  tail call void @free(ptr noundef %.037) #9
  br label %76

76:                                               ; preds = %75, %check_ref_format_branch.exit
  %.043 = phi i32 [ %.0, %75 ], [ 0, %check_ref_format_branch.exit ]
  ret i32 %.043
}